; ModuleID = '36/1251.c'
source_filename = "36/1251.c"
target datalayout = "e-m:e-p270:32:32-p271:32:32-p272:64:64-i64:64-f80:128-n8:16:32:64-S128"
target triple = "x86_64-pc-linux-gnu"

@.str = private unnamed_addr constant [5 x i8] c"%s%s\00", align 1
@.str.1 = private unnamed_addr constant [3 x i8] c"NO\00", align 1
@.str.2 = private unnamed_addr constant [4 x i8] c"YES\00", align 1

; Function Attrs: noinline nounwind uwtable
define dso_local i32 @main() #0 {
  %1 = alloca i32, align 4
  %2 = alloca [1000 x i8], align 16
  %3 = alloca [1000 x i8], align 16
  %4 = alloca [200 x i32], align 16
  %5 = alloca i32, align 4
  %6 = alloca i32, align 4
  %7 = alloca i32, align 4
  %8 = alloca i32, align 4
  store i32 0, i32* %1, align 4
  %9 = getelementptr inbounds [1000 x i8], [1000 x i8]* %2, i64 0, i64 0
  %10 = getelementptr inbounds [1000 x i8], [1000 x i8]* %3, i64 0, i64 0
  %11 = call i32 (i8*, ...) @__isoc99_scanf(i8* getelementptr inbounds ([5 x i8], [5 x i8]* @.str, i64 0, i64 0), i8* %9, i8* %10)
  %12 = getelementptr inbounds [200 x i32], [200 x i32]* %4, i64 0, i64 0
  %13 = bitcast i32* %12 to i8*
  call void @llvm.memset.p0i8.i64(i8* align 16 %13, i8 0, i64 800, i1 false)
  %14 = getelementptr inbounds [1000 x i8], [1000 x i8]* %2, i64 0, i64 0
  %15 = call i64 @strlen(i8* %14) #4
  %16 = trunc i64 %15 to i32
  store i32 %16, i32* %5, align 4
  %17 = getelementptr inbounds [1000 x i8], [1000 x i8]* %3, i64 0, i64 0
  %18 = call i64 @strlen(i8* %17) #4
  %19 = trunc i64 %18 to i32
  store i32 %19, i32* %6, align 4
  store i32 0, i32* %7, align 4
  br label %20

20:                                               ; preds = %33, %0
  %21 = load i32, i32* %7, align 4
  %22 = load i32, i32* %5, align 4
  %23 = icmp slt i32 %21, %22
  br i1 %23, label %24, label %36

24:                                               ; preds = %20
  %25 = load i32, i32* %7, align 4
  %26 = sext i32 %25 to i64
  %27 = getelementptr inbounds [1000 x i8], [1000 x i8]* %2, i64 0, i64 %26
  %28 = load i8, i8* %27, align 1
  %29 = sext i8 %28 to i64
  %30 = getelementptr inbounds [200 x i32], [200 x i32]* %4, i64 0, i64 %29
  %31 = load i32, i32* %30, align 4
  %32 = add nsw i32 %31, 1
  store i32 %32, i32* %30, align 4
  br label %33

33:                                               ; preds = %24
  %34 = load i32, i32* %7, align 4
  %35 = add nsw i32 %34, 1
  store i32 %35, i32* %7, align 4
  br label %20

36:                                               ; preds = %20
  %37 = load i32, i32* %5, align 4
  %38 = load i32, i32* %6, align 4
  %39 = icmp ne i32 %37, %38
  br i1 %39, label %40, label %42

40:                                               ; preds = %36
  %41 = call i32 (i8*, ...) @printf(i8* getelementptr inbounds ([3 x i8], [3 x i8]* @.str.1, i64 0, i64 0))
  store i32 0, i32* %1, align 4
  br label %72

42:                                               ; preds = %36
  store i32 0, i32* %8, align 4
  br label %43

43:                                               ; preds = %67, %42
  %44 = load i32, i32* %8, align 4
  %45 = load i32, i32* %6, align 4
  %46 = icmp slt i32 %44, %45
  br i1 %46, label %47, label %70

47:                                               ; preds = %43
  %48 = load i32, i32* %8, align 4
  %49 = sext i32 %48 to i64
  %50 = getelementptr inbounds [1000 x i8], [1000 x i8]* %3, i64 0, i64 %49
  %51 = load i8, i8* %50, align 1
  %52 = sext i8 %51 to i64
  %53 = getelementptr inbounds [200 x i32], [200 x i32]* %4, i64 0, i64 %52
  %54 = load i32, i32* %53, align 4
  %55 = add nsw i32 %54, -1
  store i32 %55, i32* %53, align 4
  %56 = load i32, i32* %8, align 4
  %57 = sext i32 %56 to i64
  %58 = getelementptr inbounds [1000 x i8], [1000 x i8]* %3, i64 0, i64 %57
  %59 = load i8, i8* %58, align 1
  %60 = sext i8 %59 to i64
  %61 = getelementptr inbounds [200 x i32], [200 x i32]* %4, i64 0, i64 %60
  %62 = load i32, i32* %61, align 4
  %63 = icmp slt i32 %62, 0
  br i1 %63, label %64, label %66

64:                                               ; preds = %47
  %65 = call i32 (i8*, ...) @printf(i8* getelementptr inbounds ([3 x i8], [3 x i8]* @.str.1, i64 0, i64 0))
  store i32 0, i32* %1, align 4
  br label %72

66:                                               ; preds = %47
  br label %67

67:                                               ; preds = %66
  %68 = load i32, i32* %8, align 4
  %69 = add nsw i32 %68, 1
  store i32 %69, i32* %8, align 4
  br label %43

70:                                               ; preds = %43
  %71 = call i32 (i8*, ...) @printf(i8* getelementptr inbounds ([4 x i8], [4 x i8]* @.str.2, i64 0, i64 0))
  store i32 0, i32* %1, align 4
  br label %72

72:                                               ; preds = %70, %64, %40
  %73 = load i32, i32* %1, align 4
  ret i32 %73
}

declare dso_local i32 @__isoc99_scanf(i8*, ...) #1

; Function Attrs: argmemonly nounwind willreturn
declare void @llvm.memset.p0i8.i64(i8* nocapture writeonly, i8, i64, i1 immarg) #2

; Function Attrs: nounwind readonly
declare dso_local i64 @strlen(i8*) #3

declare dso_local i32 @printf(i8*, ...) #1


!llvm.module.flags = !{!0}
!llvm.ident = !{!1}

!0 = !{i32 1, !"wchar_size", i32 4}
!1 = !{!"clang version 10.0.0-4ubuntu1 "}
