; ModuleID = 'source-C-CXX/35/1251.c'
source_filename = "source-C-CXX/35/1251.c"
target datalayout = "e-m:e-p270:32:32-p271:32:32-p272:64:64-i64:64-f80:128-n8:16:32:64-S128"
target triple = "x86_64-pc-linux-gnu"

@.str = private unnamed_addr constant [5 x i8] c"%s%s\00", align 1
@.str.1 = private unnamed_addr constant [3 x i8] c"NO\00", align 1
@.str.2 = private unnamed_addr constant [4 x i8] c"YES\00", align 1

; Function Attrs: nofree nounwind sspstrong uwtable
define dso_local i32 @main() local_unnamed_addr #0 {
  %1 = alloca [1000 x i8], align 16
  %2 = alloca [1000 x i8], align 16
  %3 = alloca [200 x i32], align 16
  %4 = getelementptr inbounds [1000 x i8], [1000 x i8]* %1, i64 0, i64 0
  call void @llvm.lifetime.start.p0i8(i64 1000, i8* nonnull %4) #5
  %5 = getelementptr inbounds [1000 x i8], [1000 x i8]* %2, i64 0, i64 0
  call void @llvm.lifetime.start.p0i8(i64 1000, i8* nonnull %5) #5
  %6 = call i32 (i8*, ...) @__isoc99_scanf(i8* getelementptr inbounds ([5 x i8], [5 x i8]* @.str, i64 0, i64 0), i8* nonnull %4, i8* nonnull %5)
  %7 = bitcast [200 x i32]* %3 to i8*
  call void @llvm.lifetime.start.p0i8(i64 800, i8* nonnull %7) #5
  call void @llvm.memset.p0i8.i64(i8* noundef nonnull align 16 dereferenceable(800) %7, i8 0, i64 800, i1 false)
  %8 = call i64 @strlen(i8* noundef nonnull %4) #6
  %9 = trunc i64 %8 to i32
  %10 = call i64 @strlen(i8* noundef nonnull %5) #6
  %11 = trunc i64 %10 to i32
  %12 = icmp sgt i32 %9, 0
  br i1 %12, label %13, label %37

13:                                               ; preds = %0
  %14 = and i64 %8, 4294967295
  %15 = add nsw i64 %14, -1
  %16 = and i64 %8, 3
  %17 = icmp ult i64 %15, 3
  br i1 %17, label %20, label %18

18:                                               ; preds = %13
  %19 = sub nsw i64 %14, %16
  br label %42

20:                                               ; preds = %42, %13
  %21 = phi i64 [ 0, %13 ], [ %72, %42 ]
  %22 = icmp eq i64 %16, 0
  br i1 %22, label %35, label %23

23:                                               ; preds = %20, %23
  %24 = phi i64 [ %32, %23 ], [ %21, %20 ]
  %25 = phi i64 [ %33, %23 ], [ %16, %20 ]
  %26 = getelementptr inbounds [1000 x i8], [1000 x i8]* %1, i64 0, i64 %24
  %27 = load i8, i8* %26, align 1, !tbaa !5
  %28 = sext i8 %27 to i64
  %29 = getelementptr inbounds [200 x i32], [200 x i32]* %3, i64 0, i64 %28
  %30 = load i32, i32* %29, align 4, !tbaa !8
  %31 = add nsw i32 %30, 1
  store i32 %31, i32* %29, align 4, !tbaa !8
  %32 = add nuw nsw i64 %24, 1
  %33 = add i64 %25, -1
  %34 = icmp eq i64 %33, 0
  br i1 %34, label %35, label %23, !llvm.loop !10

35:                                               ; preds = %23, %20
  %36 = icmp eq i32 %9, %11
  br i1 %36, label %39, label %88

37:                                               ; preds = %0
  %38 = icmp eq i32 %9, %11
  br i1 %38, label %87, label %88

39:                                               ; preds = %35
  br i1 %12, label %40, label %87

40:                                               ; preds = %39
  %41 = and i64 %8, 4294967295
  br label %77

42:                                               ; preds = %42, %18
  %43 = phi i64 [ 0, %18 ], [ %72, %42 ]
  %44 = phi i64 [ %19, %18 ], [ %73, %42 ]
  %45 = getelementptr inbounds [1000 x i8], [1000 x i8]* %1, i64 0, i64 %43
  %46 = load i8, i8* %45, align 4, !tbaa !5
  %47 = sext i8 %46 to i64
  %48 = getelementptr inbounds [200 x i32], [200 x i32]* %3, i64 0, i64 %47
  %49 = load i32, i32* %48, align 4, !tbaa !8
  %50 = add nsw i32 %49, 1
  store i32 %50, i32* %48, align 4, !tbaa !8
  %51 = or i64 %43, 1
  %52 = getelementptr inbounds [1000 x i8], [1000 x i8]* %1, i64 0, i64 %51
  %53 = load i8, i8* %52, align 1, !tbaa !5
  %54 = sext i8 %53 to i64
  %55 = getelementptr inbounds [200 x i32], [200 x i32]* %3, i64 0, i64 %54
  %56 = load i32, i32* %55, align 4, !tbaa !8
  %57 = add nsw i32 %56, 1
  store i32 %57, i32* %55, align 4, !tbaa !8
  %58 = or i64 %43, 2
  %59 = getelementptr inbounds [1000 x i8], [1000 x i8]* %1, i64 0, i64 %58
  %60 = load i8, i8* %59, align 2, !tbaa !5
  %61 = sext i8 %60 to i64
  %62 = getelementptr inbounds [200 x i32], [200 x i32]* %3, i64 0, i64 %61
  %63 = load i32, i32* %62, align 4, !tbaa !8
  %64 = add nsw i32 %63, 1
  store i32 %64, i32* %62, align 4, !tbaa !8
  %65 = or i64 %43, 3
  %66 = getelementptr inbounds [1000 x i8], [1000 x i8]* %1, i64 0, i64 %65
  %67 = load i8, i8* %66, align 1, !tbaa !5
  %68 = sext i8 %67 to i64
  %69 = getelementptr inbounds [200 x i32], [200 x i32]* %3, i64 0, i64 %68
  %70 = load i32, i32* %69, align 4, !tbaa !8
  %71 = add nsw i32 %70, 1
  store i32 %71, i32* %69, align 4, !tbaa !8
  %72 = add nuw nsw i64 %43, 4
  %73 = add i64 %44, -4
  %74 = icmp eq i64 %73, 0
  br i1 %74, label %20, label %42, !llvm.loop !12

75:                                               ; preds = %77
  %76 = icmp eq i64 %86, %41
  br i1 %76, label %87, label %77, !llvm.loop !14

77:                                               ; preds = %40, %75
  %78 = phi i64 [ 0, %40 ], [ %86, %75 ]
  %79 = getelementptr inbounds [1000 x i8], [1000 x i8]* %2, i64 0, i64 %78
  %80 = load i8, i8* %79, align 1, !tbaa !5
  %81 = sext i8 %80 to i64
  %82 = getelementptr inbounds [200 x i32], [200 x i32]* %3, i64 0, i64 %81
  %83 = load i32, i32* %82, align 4, !tbaa !8
  %84 = add nsw i32 %83, -1
  store i32 %84, i32* %82, align 4, !tbaa !8
  %85 = icmp slt i32 %83, 1
  %86 = add nuw nsw i64 %78, 1
  br i1 %85, label %88, label %75

87:                                               ; preds = %75, %37, %39
  br label %88

88:                                               ; preds = %77, %35, %37, %87
  %89 = phi i8* [ getelementptr inbounds ([4 x i8], [4 x i8]* @.str.2, i64 0, i64 0), %87 ], [ getelementptr inbounds ([3 x i8], [3 x i8]* @.str.1, i64 0, i64 0), %37 ], [ getelementptr inbounds ([3 x i8], [3 x i8]* @.str.1, i64 0, i64 0), %35 ], [ getelementptr inbounds ([3 x i8], [3 x i8]* @.str.1, i64 0, i64 0), %77 ]
  %90 = call i32 (i8*, ...) @printf(i8* nonnull dereferenceable(1) %89)
  call void @llvm.lifetime.end.p0i8(i64 800, i8* nonnull %7) #5
  call void @llvm.lifetime.end.p0i8(i64 1000, i8* nonnull %5) #5
  call void @llvm.lifetime.end.p0i8(i64 1000, i8* nonnull %4) #5
  ret i32 0
}

; Function Attrs: argmemonly mustprogress nofree nosync nounwind willreturn
declare void @llvm.lifetime.start.p0i8(i64 immarg, i8* nocapture) #1

; Function Attrs: nofree nounwind
declare noundef i32 @__isoc99_scanf(i8* nocapture noundef readonly, ...) local_unnamed_addr #2

; Function Attrs: argmemonly mustprogress nofree nounwind willreturn writeonly
declare void @llvm.memset.p0i8.i64(i8* nocapture writeonly, i8, i64, i1 immarg) #3

; Function Attrs: argmemonly mustprogress nofree nounwind readonly willreturn
declare i64 @strlen(i8* nocapture) local_unnamed_addr #4

; Function Attrs: argmemonly mustprogress nofree nosync nounwind willreturn
declare void @llvm.lifetime.end.p0i8(i64 immarg, i8* nocapture) #1

; Function Attrs: nofree nounwind
declare noundef i32 @printf(i8* nocapture noundef readonly, ...) local_unnamed_addr #2


!llvm.module.flags = !{!0, !1, !2, !3}
!llvm.ident = !{!4}

!0 = !{i32 1, !"wchar_size", i32 4}
!1 = !{i32 7, !"PIC Level", i32 2}
!2 = !{i32 7, !"PIE Level", i32 2}
!3 = !{i32 7, !"uwtable", i32 1}
!4 = !{!"clang version 13.0.0"}
!5 = !{!6, !6, i64 0}
!6 = !{!"omnipotent char", !7, i64 0}
!7 = !{!"Simple C/C++ TBAA"}
!8 = !{!9, !9, i64 0}
!9 = !{!"int", !6, i64 0}
!10 = distinct !{!10, !11}
!11 = !{!"llvm.loop.unroll.disable"}
!12 = distinct !{!12, !13}
!13 = !{!"llvm.loop.mustprogress"}
!14 = distinct !{!14, !13}
